target datalayout = "e-m:e-p270:32:32-p271:32:32-p272:64:64-i64:64-i128:128-f80:128-n8:16:32:64-S128"
target triple = "x86_64-pc-linux-gnu"

; Function Attrs: inlinehint nounwind uwtable
define internal i32 @Pla_TtGetBit(ptr noundef %0, i32 noundef %1) #4 {
  %3 = alloca ptr, align 8
  %4 = alloca i32, align 4
  store ptr %0, ptr %3, align 8, !tbaa !47
  store i32 %1, ptr %4, align 4, !tbaa !14
  %5 = load ptr, ptr %3, align 8, !tbaa !47
  %6 = load i32, ptr %4, align 4, !tbaa !14
  %7 = ashr i32 %6, 6
  %8 = sext i32 %7 to i64
  %9 = getelementptr inbounds i64, ptr %5, i64 %8
  %10 = load i64, ptr %9, align 8, !tbaa !50
  %11 = load i32, ptr %4, align 4, !tbaa !14
  %12 = and i32 %11, 63
  %13 = zext i32 %12 to i64
  %14 = lshr i64 %10, %13
  %15 = trunc i64 %14 to i32
  %16 = and i32 %15, 1
  ret i32 %16
}

; Function Attrs: nounwind uwtable
define i32 @Pla_ManExpendDirNum(ptr noundef %0, i32 noundef %1, i32 noundef %2, ptr noundef %3) #0 {
  %5 = alloca ptr, align 8
  %6 = alloca i32, align 4
  %7 = alloca i32, align 4
  %8 = alloca ptr, align 8
  %9 = alloca i32, align 4
  %10 = alloca i32, align 4
  store ptr %0, ptr %5, align 8, !tbaa !47
  store i32 %1, ptr %6, align 4, !tbaa !14
  store i32 %2, ptr %7, align 4, !tbaa !14
  store ptr %3, ptr %8, align 8, !tbaa !48
  call void @llvm.lifetime.start.p0(i64 4, ptr %9) #10
  call void @llvm.lifetime.start.p0(i64 4, ptr %10) #10
  store i32 0, ptr %10, align 4, !tbaa !14
  store i32 0, ptr %9, align 4, !tbaa !14
  br label %11

11:                                               ; preds = %31, %4
  %12 = load i32, ptr %9, align 4, !tbaa !14
  %13 = load i32, ptr %6, align 4, !tbaa !14
  %14 = icmp slt i32 %12, %13
  br i1 %14, label %15, label %34

15:                                               ; preds = %11
  %16 = load ptr, ptr %5, align 8, !tbaa !47
  %17 = load i32, ptr %7, align 4, !tbaa !14
  %18 = load i32, ptr %9, align 4, !tbaa !14
  %19 = shl i32 1, %18
  %20 = xor i32 %17, %19
  %21 = call i32 @Pla_TtGetBit(ptr noundef %16, i32 noundef %20)
  %22 = icmp ne i32 %21, 0
  br i1 %22, label %23, label %30

23:                                               ; preds = %15
  %24 = load i32, ptr %9, align 4, !tbaa !14
  %25 = load ptr, ptr %8, align 8, !tbaa !48
  %26 = load i32, ptr %10, align 4, !tbaa !14
  %27 = add nsw i32 %26, 1
  store i32 %27, ptr %10, align 4, !tbaa !14
  %28 = sext i32 %26 to i64
  %29 = getelementptr inbounds i32, ptr %25, i64 %28
  store i32 %24, ptr %29, align 4, !tbaa !14
  br label %30

30:                                               ; preds = %23, %15
  br label %31

31:                                               ; preds = %30
  %32 = load i32, ptr %9, align 4, !tbaa !14
  %33 = add nsw i32 %32, 1
  store i32 %33, ptr %9, align 4, !tbaa !14
  br label %11, !llvm.loop !49

34:                                               ; preds = %11
  %35 = load i32, ptr %10, align 4, !tbaa !14
  call void @llvm.lifetime.end.p0(i64 4, ptr %10) #10
  call void @llvm.lifetime.end.p0(i64 4, ptr %9) #10
  ret i32 %35
}