; Function Attrs: nofree norecurse nosync nounwind memory(argmem: readwrite) uwtable
define i32 @Pla_ManExpendDirNum(ptr noundef readonly captures(none) %0, i32 noundef %1, i32 noundef %2, ptr noundef writeonly captures(none) %3) local_unnamed_addr #4 {
  %5 = icmp sgt i32 %1, 0
  br i1 %5, label %.lr.ph, label %._crit_edge

.lr.ph:                                           ; preds = %4, %20
  %.011 = phi i32 [ %.1, %20 ], [ 0, %4 ]
  %.0910 = phi i32 [ %21, %20 ], [ 0, %4 ]
  %6 = shl nuw i32 1, %.0910
  %7 = xor i32 %6, %2
  %8 = ashr i32 %7, 6
  %9 = sext i32 %8 to i64
  %10 = getelementptr inbounds i64, ptr %0, i64 %9
  %11 = load i64, ptr %10, align 8, !tbaa !32
  %12 = and i32 %7, 63
  %13 = zext nneg i32 %12 to i64
  %14 = shl nuw i64 1, %13
  %15 = and i64 %11, %14
  %.not = icmp eq i64 %15, 0
  br i1 %.not, label %20, label %16

16:                                               ; preds = %.lr.ph
  %17 = add nsw i32 %.011, 1
  %18 = sext i32 %.011 to i64
  %19 = getelementptr inbounds i32, ptr %3, i64 %18
  store i32 %.0910, ptr %19, align 4, !tbaa !21
  br label %20

20:                                               ; preds = %.lr.ph, %16
  %.1 = phi i32 [ %17, %16 ], [ %.011, %.lr.ph ]
  %21 = add nuw nsw i32 %.0910, 1
  %exitcond.not = icmp eq i32 %21, %1
  br i1 %exitcond.not, label %._crit_edge, label %.lr.ph, !llvm.loop !34

._crit_edge:                                      ; preds = %20, %4
  %.0.lcssa = phi i32 [ 0, %4 ], [ %.1, %20 ]
  ret i32 %.0.lcssa
}